

Microchip Technology PIC LITE Macro Assembler V1.44 build -154322312 
                                                                                               Fri Dec 15 10:24:28 2017

Microchip Technology Omniscient Code Generator v1.44 (Free mode) build 201709140600
     1                           	processor	12F1840
     2                           	opt	pw 120
     3                           	opt	lm
     4                           	psect	idataBANK0,global,class=CODE,delta=2
     5                           	psect	stringtext1,global,class=STRCODE,delta=2
     6                           	psect	stringtext2,global,class=STRCODE,delta=2
     7                           	psect	cinit,global,class=CODE,merge=1,delta=2
     8                           	psect	bssCOMMON,global,class=COMMON,space=1,delta=1
     9                           	psect	bssBANK0,global,class=BANK0,space=1,delta=1
    10                           	psect	dataBANK0,global,class=BANK0,space=1,delta=1
    11                           	psect	inittext,global,class=CODE,delta=2
    12                           	psect	cstackCOMMON,global,class=COMMON,space=1,delta=1
    13                           	psect	cstackBANK0,global,class=BANK0,space=1,delta=1
    14                           	psect	maintext,global,class=CODE,merge=1,split=1,delta=2
    15                           	psect	text1,local,class=CODE,merge=1,delta=2
    16                           	psect	text2,local,class=CODE,merge=1,delta=2
    17                           	psect	text3,local,class=CODE,merge=1,delta=2
    18                           	psect	text4,local,class=CODE,merge=1,delta=2,group=2
    19                           	dabs	1,0x7E,2
    20  0000                     
    21                           ; Version 1.44
    22                           ; Generated 14/09/2017 GMT
    23                           ; 
    24                           ; Copyright © 2017, Microchip Technology Inc. and its subsidiaries ("Microchip")
    25                           ; All rights reserved.
    26                           ; 
    27                           ; This software is developed by Microchip Technology Inc. and its subsidiaries ("Microch
      +                          ip").
    28                           ; 
    29                           ; Redistribution and use in source and binary forms, with or without modification, are
    30                           ; permitted provided that the following conditions are met:
    31                           ; 
    32                           ;     1. Redistributions of source code must retain the above copyright notice, this lis
      +                          t of
    33                           ;        conditions and the following disclaimer.
    34                           ; 
    35                           ;     2. Redistributions in binary form must reproduce the above copyright notice, this 
      +                          list
    36                           ;        of conditions and the following disclaimer in the documentation and/or other
    37                           ;        materials provided with the distribution.
    38                           ; 
    39                           ;     3. Microchip's name may not be used to endorse or promote products derived from th
      +                          is
    40                           ;        software without specific prior written permission.
    41                           ; 
    42                           ; THIS SOFTWARE IS PROVIDED BY MICROCHIP "AS IS" AND ANY EXPRESS OR IMPLIED WARRANTIES,
    43                           ; INCLUDING, BUT NOT LIMITED TO, THE IMPLIED WARRANTIES OF MERCHANTABILITY AND FITNESS F
      +                          OR
    44                           ; PURPOSE ARE DISCLAIMED.  IN NO EVENT SHALL MICROCHIP BE LIABLE FOR ANY DIRECT, INDIREC
      +                          T,
    45                           ; INCIDENTAL, SPECIAL, EXEMPLARY, OR CONSEQUENTIAL DAMAGES (INCLUDING BUT NOT LIMITED TO
    46                           ; PROCUREMENT OF SUBSTITUTE GOODS OR SERVICES; LOSS OF USE, DATA OR PROFITS; OR BUSINESS
    47                           ; INTERRUPTION) HOWSOEVER CAUSED AND ON ANY THEORY OF LIABILITY, WHETHER IN CONTRACT, ST
      +                          RICT
    48                           ; LIABILITY, OR TORT (INCLUDING NEGLIGENCE OR OTHERWISE) ARISING IN ANY WAY OUT OF THE U
      +                          SE OF
    49                           ; THIS SOFTWARE, EVEN IF ADVISED OF THE POSSIBILITY OF SUCH DAMAGE.
    50                           ; 
    51                           ; 
    52                           ; Code-generator required, PIC12F1840 Definitions
    53                           ; 
    54                           ; SFR Addresses
    55  0000                     	;# 
    56  0001                     	;# 
    57  0002                     	;# 
    58  0003                     	;# 
    59  0004                     	;# 
    60  0005                     	;# 
    61  0006                     	;# 
    62  0007                     	;# 
    63  0008                     	;# 
    64  0009                     	;# 
    65  000A                     	;# 
    66  000B                     	;# 
    67  000C                     	;# 
    68  0011                     	;# 
    69  0012                     	;# 
    70  0015                     	;# 
    71  0016                     	;# 
    72  0016                     	;# 
    73  0017                     	;# 
    74  0018                     	;# 
    75  0019                     	;# 
    76  001A                     	;# 
    77  001B                     	;# 
    78  001C                     	;# 
    79  001E                     	;# 
    80  001F                     	;# 
    81  008C                     	;# 
    82  0091                     	;# 
    83  0092                     	;# 
    84  0095                     	;# 
    85  0096                     	;# 
    86  0097                     	;# 
    87  0098                     	;# 
    88  0099                     	;# 
    89  009A                     	;# 
    90  009B                     	;# 
    91  009B                     	;# 
    92  009C                     	;# 
    93  009D                     	;# 
    94  009E                     	;# 
    95  010C                     	;# 
    96  0111                     	;# 
    97  0112                     	;# 
    98  0115                     	;# 
    99  0116                     	;# 
   100  0117                     	;# 
   101  0118                     	;# 
   102  0119                     	;# 
   103  011A                     	;# 
   104  011B                     	;# 
   105  011D                     	;# 
   106  011D                     	;# 
   107  018C                     	;# 
   108  0191                     	;# 
   109  0191                     	;# 
   110  0192                     	;# 
   111  0193                     	;# 
   112  0193                     	;# 
   113  0193                     	;# 
   114  0194                     	;# 
   115  0195                     	;# 
   116  0196                     	;# 
   117  0197                     	;# 
   118  0199                     	;# 
   119  019A                     	;# 
   120  019B                     	;# 
   121  019B                     	;# 
   122  019B                     	;# 
   123  019B                     	;# 
   124  019C                     	;# 
   125  019C                     	;# 
   126  019D                     	;# 
   127  019E                     	;# 
   128  019F                     	;# 
   129  020C                     	;# 
   130  0211                     	;# 
   131  0211                     	;# 
   132  0212                     	;# 
   133  0212                     	;# 
   134  0213                     	;# 
   135  0213                     	;# 
   136  0214                     	;# 
   137  0214                     	;# 
   138  0215                     	;# 
   139  0215                     	;# 
   140  0215                     	;# 
   141  0216                     	;# 
   142  0216                     	;# 
   143  0217                     	;# 
   144  0217                     	;# 
   145  0291                     	;# 
   146  0291                     	;# 
   147  0292                     	;# 
   148  0293                     	;# 
   149  0294                     	;# 
   150  0295                     	;# 
   151  0295                     	;# 
   152  0296                     	;# 
   153  0391                     	;# 
   154  0392                     	;# 
   155  0393                     	;# 
   156  039A                     	;# 
   157  039C                     	;# 
   158  039D                     	;# 
   159  039E                     	;# 
   160  039F                     	;# 
   161  0FE4                     	;# 
   162  0FE5                     	;# 
   163  0FE6                     	;# 
   164  0FE7                     	;# 
   165  0FE8                     	;# 
   166  0FE9                     	;# 
   167  0FEA                     	;# 
   168  0FEB                     	;# 
   169  0FED                     	;# 
   170  0FEE                     	;# 
   171  0FEF                     	;# 
   172  0000                     	;# 
   173  0001                     	;# 
   174  0002                     	;# 
   175  0003                     	;# 
   176  0004                     	;# 
   177  0005                     	;# 
   178  0006                     	;# 
   179  0007                     	;# 
   180  0008                     	;# 
   181  0009                     	;# 
   182  000A                     	;# 
   183  000B                     	;# 
   184  000C                     	;# 
   185  0011                     	;# 
   186  0012                     	;# 
   187  0015                     	;# 
   188  0016                     	;# 
   189  0016                     	;# 
   190  0017                     	;# 
   191  0018                     	;# 
   192  0019                     	;# 
   193  001A                     	;# 
   194  001B                     	;# 
   195  001C                     	;# 
   196  001E                     	;# 
   197  001F                     	;# 
   198  008C                     	;# 
   199  0091                     	;# 
   200  0092                     	;# 
   201  0095                     	;# 
   202  0096                     	;# 
   203  0097                     	;# 
   204  0098                     	;# 
   205  0099                     	;# 
   206  009A                     	;# 
   207  009B                     	;# 
   208  009B                     	;# 
   209  009C                     	;# 
   210  009D                     	;# 
   211  009E                     	;# 
   212  010C                     	;# 
   213  0111                     	;# 
   214  0112                     	;# 
   215  0115                     	;# 
   216  0116                     	;# 
   217  0117                     	;# 
   218  0118                     	;# 
   219  0119                     	;# 
   220  011A                     	;# 
   221  011B                     	;# 
   222  011D                     	;# 
   223  011D                     	;# 
   224  018C                     	;# 
   225  0191                     	;# 
   226  0191                     	;# 
   227  0192                     	;# 
   228  0193                     	;# 
   229  0193                     	;# 
   230  0193                     	;# 
   231  0194                     	;# 
   232  0195                     	;# 
   233  0196                     	;# 
   234  0197                     	;# 
   235  0199                     	;# 
   236  019A                     	;# 
   237  019B                     	;# 
   238  019B                     	;# 
   239  019B                     	;# 
   240  019B                     	;# 
   241  019C                     	;# 
   242  019C                     	;# 
   243  019D                     	;# 
   244  019E                     	;# 
   245  019F                     	;# 
   246  020C                     	;# 
   247  0211                     	;# 
   248  0211                     	;# 
   249  0212                     	;# 
   250  0212                     	;# 
   251  0213                     	;# 
   252  0213                     	;# 
   253  0214                     	;# 
   254  0214                     	;# 
   255  0215                     	;# 
   256  0215                     	;# 
   257  0215                     	;# 
   258  0216                     	;# 
   259  0216                     	;# 
   260  0217                     	;# 
   261  0217                     	;# 
   262  0291                     	;# 
   263  0291                     	;# 
   264  0292                     	;# 
   265  0293                     	;# 
   266  0294                     	;# 
   267  0295                     	;# 
   268  0295                     	;# 
   269  0296                     	;# 
   270  0391                     	;# 
   271  0392                     	;# 
   272  0393                     	;# 
   273  039A                     	;# 
   274  039C                     	;# 
   275  039D                     	;# 
   276  039E                     	;# 
   277  039F                     	;# 
   278  0FE4                     	;# 
   279  0FE5                     	;# 
   280  0FE6                     	;# 
   281  0FE7                     	;# 
   282  0FE8                     	;# 
   283  0FE9                     	;# 
   284  0FEA                     	;# 
   285  0FEB                     	;# 
   286  0FED                     	;# 
   287  0FEE                     	;# 
   288  0FEF                     	;# 
   289  0000                     	;# 
   290  0001                     	;# 
   291  0002                     	;# 
   292  0003                     	;# 
   293  0004                     	;# 
   294  0005                     	;# 
   295  0006                     	;# 
   296  0007                     	;# 
   297  0008                     	;# 
   298  0009                     	;# 
   299  000A                     	;# 
   300  000B                     	;# 
   301  000C                     	;# 
   302  0011                     	;# 
   303  0012                     	;# 
   304  0015                     	;# 
   305  0016                     	;# 
   306  0016                     	;# 
   307  0017                     	;# 
   308  0018                     	;# 
   309  0019                     	;# 
   310  001A                     	;# 
   311  001B                     	;# 
   312  001C                     	;# 
   313  001E                     	;# 
   314  001F                     	;# 
   315  008C                     	;# 
   316  0091                     	;# 
   317  0092                     	;# 
   318  0095                     	;# 
   319  0096                     	;# 
   320  0097                     	;# 
   321  0098                     	;# 
   322  0099                     	;# 
   323  009A                     	;# 
   324  009B                     	;# 
   325  009B                     	;# 
   326  009C                     	;# 
   327  009D                     	;# 
   328  009E                     	;# 
   329  010C                     	;# 
   330  0111                     	;# 
   331  0112                     	;# 
   332  0115                     	;# 
   333  0116                     	;# 
   334  0117                     	;# 
   335  0118                     	;# 
   336  0119                     	;# 
   337  011A                     	;# 
   338  011B                     	;# 
   339  011D                     	;# 
   340  011D                     	;# 
   341  018C                     	;# 
   342  0191                     	;# 
   343  0191                     	;# 
   344  0192                     	;# 
   345  0193                     	;# 
   346  0193                     	;# 
   347  0193                     	;# 
   348  0194                     	;# 
   349  0195                     	;# 
   350  0196                     	;# 
   351  0197                     	;# 
   352  0199                     	;# 
   353  019A                     	;# 
   354  019B                     	;# 
   355  019B                     	;# 
   356  019B                     	;# 
   357  019B                     	;# 
   358  019C                     	;# 
   359  019C                     	;# 
   360  019D                     	;# 
   361  019E                     	;# 
   362  019F                     	;# 
   363  020C                     	;# 
   364  0211                     	;# 
   365  0211                     	;# 
   366  0212                     	;# 
   367  0212                     	;# 
   368  0213                     	;# 
   369  0213                     	;# 
   370  0214                     	;# 
   371  0214                     	;# 
   372  0215                     	;# 
   373  0215                     	;# 
   374  0215                     	;# 
   375  0216                     	;# 
   376  0216                     	;# 
   377  0217                     	;# 
   378  0217                     	;# 
   379  0291                     	;# 
   380  0291                     	;# 
   381  0292                     	;# 
   382  0293                     	;# 
   383  0294                     	;# 
   384  0295                     	;# 
   385  0295                     	;# 
   386  0296                     	;# 
   387  0391                     	;# 
   388  0392                     	;# 
   389  0393                     	;# 
   390  039A                     	;# 
   391  039C                     	;# 
   392  039D                     	;# 
   393  039E                     	;# 
   394  039F                     	;# 
   395  0FE4                     	;# 
   396  0FE5                     	;# 
   397  0FE6                     	;# 
   398  0FE7                     	;# 
   399  0FE8                     	;# 
   400  0FE9                     	;# 
   401  0FEA                     	;# 
   402  0FEB                     	;# 
   403  0FED                     	;# 
   404  0FEE                     	;# 
   405  0FEF                     	;# 
   406                           
   407                           	psect	idataBANK0
   408  0621                     __pidataBANK0:	
   409                           
   410                           ;initializer for _LPFInput
   411  0621  347F               	retlw	127
   412  0622  347F               	retlw	127
   413  0623  347F               	retlw	127
   414  0624  347F               	retlw	127
   415  0625  347F               	retlw	127
   416  0626  347F               	retlw	127
   417  0627  347F               	retlw	127
   418  0628  347F               	retlw	127
   419  0629  347F               	retlw	127
   420  062A  347F               	retlw	127
   421                           
   422                           ;initializer for _green
   423  062B  3440               	retlw	64
   424                           
   425                           	psect	stringtext1
   426  0800                     __pstringtext1:	
   427  0800                     _LPFLookupTable:	
   428  0800  3400               	retlw	0
   429  0801  3400               	retlw	0
   430  0802  3400               	retlw	0
   431  0803  3400               	retlw	0
   432  0804  3400               	retlw	0
   433  0805  3400               	retlw	0
   434  0806  3400               	retlw	0
   435  0807  3400               	retlw	0
   436  0808  3400               	retlw	0
   437  0809  3400               	retlw	0
   438  080A  3400               	retlw	0
   439  080B  3400               	retlw	0
   440  080C  3400               	retlw	0
   441  080D  3400               	retlw	0
   442  080E  3400               	retlw	0
   443  080F  3400               	retlw	0
   444  0810  3400               	retlw	0
   445  0811  3400               	retlw	0
   446  0812  3400               	retlw	0
   447  0813  3400               	retlw	0
   448  0814  3400               	retlw	0
   449  0815  3400               	retlw	0
   450  0816  3400               	retlw	0
   451  0817  3400               	retlw	0
   452  0818  3400               	retlw	0
   453  0819  3400               	retlw	0
   454  081A  3400               	retlw	0
   455  081B  3400               	retlw	0
   456  081C  3400               	retlw	0
   457  081D  3400               	retlw	0
   458  081E  3400               	retlw	0
   459  081F  3400               	retlw	0
   460  0820  3400               	retlw	0
   461  0821  3400               	retlw	0
   462  0822  3400               	retlw	0
   463  0823  3400               	retlw	0
   464  0824  3400               	retlw	0
   465  0825  3400               	retlw	0
   466  0826  3400               	retlw	0
   467  0827  3400               	retlw	0
   468  0828  3400               	retlw	0
   469  0829  3400               	retlw	0
   470  082A  3400               	retlw	0
   471  082B  3400               	retlw	0
   472  082C  3400               	retlw	0
   473  082D  3400               	retlw	0
   474  082E  3400               	retlw	0
   475  082F  3400               	retlw	0
   476  0830  3400               	retlw	0
   477  0831  3400               	retlw	0
   478  0832  3400               	retlw	0
   479  0833  3400               	retlw	0
   480  0834  3400               	retlw	0
   481  0835  3400               	retlw	0
   482  0836  3400               	retlw	0
   483  0837  3400               	retlw	0
   484  0838  3400               	retlw	0
   485  0839  3400               	retlw	0
   486  083A  3400               	retlw	0
   487  083B  3400               	retlw	0
   488  083C  3400               	retlw	0
   489  083D  3400               	retlw	0
   490  083E  3400               	retlw	0
   491  083F  3400               	retlw	0
   492  0840  3400               	retlw	0
   493  0841  3400               	retlw	0
   494  0842  3400               	retlw	0
   495  0843  3400               	retlw	0
   496  0844  3400               	retlw	0
   497  0845  3400               	retlw	0
   498  0846  3400               	retlw	0
   499  0847  3400               	retlw	0
   500  0848  3400               	retlw	0
   501  0849  3400               	retlw	0
   502  084A  3400               	retlw	0
   503  084B  3400               	retlw	0
   504  084C  3400               	retlw	0
   505  084D  3400               	retlw	0
   506  084E  3400               	retlw	0
   507  084F  3400               	retlw	0
   508  0850  3400               	retlw	0
   509  0851  3400               	retlw	0
   510  0852  3400               	retlw	0
   511  0853  3400               	retlw	0
   512  0854  3400               	retlw	0
   513  0855  3400               	retlw	0
   514  0856  3400               	retlw	0
   515  0857  3400               	retlw	0
   516  0858  3401               	retlw	1
   517  0859  3401               	retlw	1
   518  085A  3401               	retlw	1
   519  085B  3402               	retlw	2
   520  085C  3402               	retlw	2
   521  085D  3402               	retlw	2
   522  085E  3402               	retlw	2
   523  085F  3403               	retlw	3
   524  0860  3403               	retlw	3
   525  0861  3403               	retlw	3
   526  0862  3404               	retlw	4
   527  0863  3404               	retlw	4
   528  0864  3404               	retlw	4
   529  0865  3404               	retlw	4
   530  0866  3405               	retlw	5
   531  0867  3405               	retlw	5
   532  0868  3405               	retlw	5
   533  0869  3406               	retlw	6
   534  086A  3406               	retlw	6
   535  086B  3406               	retlw	6
   536  086C  3406               	retlw	6
   537  086D  3407               	retlw	7
   538  086E  3407               	retlw	7
   539  086F  3407               	retlw	7
   540  0870  3408               	retlw	8
   541  0871  3408               	retlw	8
   542  0872  3408               	retlw	8
   543  0873  3408               	retlw	8
   544  0874  3409               	retlw	9
   545  0875  3409               	retlw	9
   546  0876  3409               	retlw	9
   547  0877  340A               	retlw	10
   548  0878  340A               	retlw	10
   549  0879  340A               	retlw	10
   550  087A  340A               	retlw	10
   551  087B  340B               	retlw	11
   552  087C  340B               	retlw	11
   553  087D  340B               	retlw	11
   554  087E  340C               	retlw	12
   555  087F  340C               	retlw	12
   556  0880  340C               	retlw	12
   557  0881  340C               	retlw	12
   558  0882  340D               	retlw	13
   559  0883  340D               	retlw	13
   560  0884  340D               	retlw	13
   561  0885  340E               	retlw	14
   562  0886  340E               	retlw	14
   563  0887  340E               	retlw	14
   564  0888  340E               	retlw	14
   565  0889  340F               	retlw	15
   566  088A  340F               	retlw	15
   567  088B  340F               	retlw	15
   568  088C  3410               	retlw	16
   569  088D  3410               	retlw	16
   570  088E  3410               	retlw	16
   571  088F  3410               	retlw	16
   572  0890  3411               	retlw	17
   573  0891  3411               	retlw	17
   574  0892  3411               	retlw	17
   575  0893  3412               	retlw	18
   576  0894  3412               	retlw	18
   577  0895  3412               	retlw	18
   578  0896  3412               	retlw	18
   579  0897  3413               	retlw	19
   580  0898  3413               	retlw	19
   581  0899  3413               	retlw	19
   582  089A  3414               	retlw	20
   583  089B  3414               	retlw	20
   584  089C  3414               	retlw	20
   585  089D  3414               	retlw	20
   586  089E  3415               	retlw	21
   587  089F  3415               	retlw	21
   588  08A0  3415               	retlw	21
   589  08A1  3416               	retlw	22
   590  08A2  3416               	retlw	22
   591  08A3  3416               	retlw	22
   592  08A4  3416               	retlw	22
   593  08A5  3417               	retlw	23
   594  08A6  3417               	retlw	23
   595  08A7  3417               	retlw	23
   596  08A8  3418               	retlw	24
   597  08A9  3418               	retlw	24
   598  08AA  3418               	retlw	24
   599  08AB  3418               	retlw	24
   600  08AC  3419               	retlw	25
   601  08AD  3419               	retlw	25
   602  08AE  3419               	retlw	25
   603  08AF  341A               	retlw	26
   604  08B0  341A               	retlw	26
   605  08B1  341A               	retlw	26
   606  08B2  341A               	retlw	26
   607  08B3  341B               	retlw	27
   608  08B4  341B               	retlw	27
   609  08B5  341B               	retlw	27
   610  08B6  341C               	retlw	28
   611  08B7  341C               	retlw	28
   612  08B8  341C               	retlw	28
   613  08B9  341C               	retlw	28
   614  08BA  341D               	retlw	29
   615  08BB  341D               	retlw	29
   616  08BC  341D               	retlw	29
   617  08BD  341E               	retlw	30
   618  08BE  341E               	retlw	30
   619  08BF  341E               	retlw	30
   620  08C0  341E               	retlw	30
   621  08C1  341E               	retlw	30
   622  08C2  341E               	retlw	30
   623  08C3  341E               	retlw	30
   624  08C4  341E               	retlw	30
   625  08C5  341E               	retlw	30
   626  08C6  341E               	retlw	30
   627  08C7  3400               	retlw	0
   628  08C8  3400               	retlw	0
   629  08C9  3400               	retlw	0
   630  08CA  3400               	retlw	0
   631  08CB  3400               	retlw	0
   632  08CC  3400               	retlw	0
   633  08CD  3400               	retlw	0
   634  08CE  3400               	retlw	0
   635  08CF  3400               	retlw	0
   636  08D0  3400               	retlw	0
   637  08D1  3400               	retlw	0
   638  08D2  3400               	retlw	0
   639  08D3  3400               	retlw	0
   640  08D4  3400               	retlw	0
   641  08D5  3400               	retlw	0
   642  08D6  3400               	retlw	0
   643  08D7  3400               	retlw	0
   644  08D8  3400               	retlw	0
   645  08D9  3400               	retlw	0
   646  08DA  3400               	retlw	0
   647  08DB  3400               	retlw	0
   648  08DC  3400               	retlw	0
   649  08DD  34DD               	retlw	221
   650  08DE  34DE               	retlw	222
   651  08DF  34DF               	retlw	223
   652  08E0  34E0               	retlw	224
   653  08E1  34E1               	retlw	225
   654  08E2  34E2               	retlw	226
   655  08E3  34E3               	retlw	227
   656  08E4  34E4               	retlw	228
   657  08E5  34E5               	retlw	229
   658  08E6  34E6               	retlw	230
   659  08E7  3400               	retlw	0
   660  08E8  3401               	retlw	1
   661  08E9  3402               	retlw	2
   662  08EA  3404               	retlw	4
   663  08EB  3406               	retlw	6
   664  08EC  3408               	retlw	8
   665  08ED  3409               	retlw	9
   666  08EE  340A               	retlw	10
   667  08EF  340C               	retlw	12
   668  08F0  340E               	retlw	14
   669  08F1  340F               	retlw	15
   670  08F2  3410               	retlw	16
   671  08F3  3412               	retlw	18
   672  08F4  3414               	retlw	20
   673  08F5  3416               	retlw	22
   674  08F6  3418               	retlw	24
   675  08F7  341A               	retlw	26
   676  08F8  341B               	retlw	27
   677  08F9  341C               	retlw	28
   678  08FA  341D               	retlw	29
   679  08FB  341E               	retlw	30
   680  08FC  341E               	retlw	30
   681  08FD  341E               	retlw	30
   682  08FE  341E               	retlw	30
   683  08FF  341E               	retlw	30
   684  0900                     __end_of_LPFLookupTable:	
   685                           
   686                           	psect	stringtext2
   687  0900                     __pstringtext2:	
   688  0900                     _maxLEDs:	
   689  0900  341E               	retlw	30
   690  0901                     __end_of_maxLEDs:	
   691  000B                     _INTCON	set	11
   692  000C                     _PORTA	set	12
   693  009C                     _ADRESH	set	156
   694  0097                     _WDTCON	set	151
   695  008C                     _TRISA	set	140
   696  009E                     _ADCON1	set	158
   697  009D                     _ADCON0	set	157
   698  0095                     _OPTION_REG	set	149
   699  0099                     _OSCCON	set	153
   700  04E9                     _GO	set	1257
   701  04E8                     _ADON	set	1256
   702  04D6                     _PLLR	set	1238
   703  010C                     _LATA	set	268
   704  018C                     _ANSELA	set	396
   705  020C                     _WPUA	set	524
   706                           
   707                           ; #config settings
   708  0000                     
   709                           	psect	cinit
   710  07E4                     start_initialization:	
   711  07E4                     __initialization:	
   712                           
   713                           ; Initialize objects allocated to BANK0
   714  07E4  3021               	movlw	low __pidataBANK0
   715  07E5  0084               	movwf	4
   716  07E6  3086               	movlw	(high __pidataBANK0)| (0+128)
   717  07E7  0085               	movwf	5
   718  07E8  302B               	movlw	low __pdataBANK0
   719  07E9  0086               	movwf	6
   720  07EA  3000               	movlw	high __pdataBANK0
   721  07EB  0087               	movwf	7
   722  07EC  300B               	movlw	11
   723  07ED  3186  261B         	fcall	init_ram
   724                           
   725                           ; Clear objects allocated to COMMON
   726  07EF  01FB               	clrf	__pbssCOMMON& (0+127)
   727  07F0  01FC               	clrf	(__pbssCOMMON+1)& (0+127)
   728  07F1  01FD               	clrf	(__pbssCOMMON+2)& (0+127)
   729                           
   730                           ; Clear objects allocated to BANK0
   731  07F2  01A0               	clrf	__pbssBANK0& (0+127)
   732  07F3  01A1               	clrf	(__pbssBANK0+1)& (0+127)
   733  07F4  01A2               	clrf	(__pbssBANK0+2)& (0+127)
   734  07F5  01A3               	clrf	(__pbssBANK0+3)& (0+127)
   735  07F6  01A4               	clrf	(__pbssBANK0+4)& (0+127)
   736  07F7  01A5               	clrf	(__pbssBANK0+5)& (0+127)
   737  07F8  01A6               	clrf	(__pbssBANK0+6)& (0+127)
   738  07F9  01A7               	clrf	(__pbssBANK0+7)& (0+127)
   739  07FA  01A8               	clrf	(__pbssBANK0+8)& (0+127)
   740  07FB  01A9               	clrf	(__pbssBANK0+9)& (0+127)
   741  07FC  01AA               	clrf	(__pbssBANK0+10)& (0+127)
   742  07FD                     end_of_initialization:	
   743                           ;End of C runtime variable initialization code
   744                           
   745  07FD                     __end_of__initialization:	
   746  07FD  0020               	movlb	0
   747  07FE  3187  2F0B         	ljmp	_main	;jump to C main() function
   748                           
   749                           	psect	bssCOMMON
   750  007B                     __pbssCOMMON:	
   751  007B                     _i:	
   752  007B                     	ds	1
   753  007C                     _max3:	
   754  007C                     	ds	1
   755  007D                     _max2:	
   756  007D                     	ds	1
   757                           
   758                           	psect	bssBANK0
   759  0020                     __pbssBANK0:	
   760  0020                     _temp:	
   761  0020                     	ds	1
   762  0021                     _tempBlue:	
   763  0021                     	ds	1
   764  0022                     _tempGreen:	
   765  0022                     	ds	1
   766  0023                     _tempRed:	
   767  0023                     	ds	1
   768  0024                     _blue:	
   769  0024                     	ds	1
   770  0025                     _red:	
   771  0025                     	ds	1
   772  0026                     _max4:	
   773  0026                     	ds	1
   774  0027                     _max1:	
   775  0027                     	ds	1
   776  0028                     _tempIN:	
   777  0028                     	ds	1
   778  0029                     _LPFAvg:	
   779  0029                     	ds	1
   780  002A                     _lastVal:	
   781  002A                     	ds	1
   782                           
   783                           	psect	dataBANK0
   784  002B                     __pdataBANK0:	
   785  002B                     _LPFInput:	
   786  002B                     	ds	10
   787  0035                     _green:	
   788  0035                     	ds	1
   789                           
   790                           	psect	inittext
   791  061B                     init_ram:	
   792  061B  00FE               	movwf	126
   793  061C                     initloop:	
   794  061C  0012               	moviw fsr0++
   795  061D  001E               	movwi fsr1++
   796  061E  0BFE               	decfsz	126,f
   797  061F  2E1C               	goto	initloop
   798  0620  3400               	retlw	0
   799                           
   800                           	psect	cstackCOMMON
   801  0070                     __pcstackCOMMON:	
   802  0070                     ?_init:	
   803  0070                     ??_init:	
   804                           ; 1 bytes @ 0x0
   805                           
   806  0070                     ?_adConvert:	
   807                           ; 1 bytes @ 0x0
   808                           
   809  0070                     ??_adConvert:	
   810                           ; 1 bytes @ 0x0
   811                           
   812  0070                     ?_lights:	
   813                           ; 1 bytes @ 0x0
   814                           
   815  0070                     ?_main:	
   816                           ; 1 bytes @ 0x0
   817                           
   818  0070                     ?___awdiv:	
   819                           ; 2 bytes @ 0x0
   820                           
   821  0070                     adConvert@chan:	
   822                           ; 2 bytes @ 0x0
   823                           
   824  0070                     lights@leds:	
   825                           ; 1 bytes @ 0x0
   826                           
   827  0070                     ___awdiv@divisor:	
   828                           ; 1 bytes @ 0x0
   829                           
   830                           
   831                           ; 2 bytes @ 0x0
   832  0070                     	ds	1
   833  0071                     ??_lights:	
   834                           
   835                           ; 1 bytes @ 0x1
   836  0071                     	ds	1
   837  0072                     ___awdiv@dividend:	
   838                           
   839                           ; 2 bytes @ 0x2
   840  0072                     	ds	1
   841  0073                     lights@height:	
   842                           
   843                           ; 1 bytes @ 0x3
   844  0073                     	ds	1
   845  0074                     ??___awdiv:	
   846  0074                     _lights$66:	
   847                           ; 1 bytes @ 0x4
   848                           
   849                           
   850                           ; 2 bytes @ 0x4
   851  0074                     	ds	1
   852  0075                     ___awdiv@counter:	
   853                           
   854                           ; 1 bytes @ 0x5
   855  0075                     	ds	1
   856  0076                     ___awdiv@sign:	
   857                           
   858                           ; 1 bytes @ 0x6
   859  0076                     	ds	1
   860  0077                     ___awdiv@quotient:	
   861                           
   862                           ; 2 bytes @ 0x7
   863  0077                     	ds	2
   864  0079                     _main$74:	
   865                           
   866                           ; 2 bytes @ 0x9
   867  0079                     	ds	2
   868                           
   869                           	psect	cstackBANK0
   870  0036                     __pcstackBANK0:	
   871  0036                     ??_main:	
   872                           
   873                           ; 1 bytes @ 0x0
   874  0036                     	ds	9
   875                           
   876                           	psect	maintext
   877  070B                     __pmaintext:	
   878 ;;
   879 ;;Main: autosize = 0, tempsize = 9, incstack = 0, save=0
   880 ;;
   881 ;; *************** function _main *****************
   882 ;; Defined at:
   883 ;;		line 92 in file "RAINBO-LPF.c"
   884 ;; Parameters:    Size  Location     Type
   885 ;;		None
   886 ;; Auto vars:     Size  Location     Type
   887 ;;		None
   888 ;; Return value:  Size  Location     Type
   889 ;;                  2  103[None  ] int 
   890 ;; Registers used:
   891 ;;		wreg, fsr0l, fsr0h, fsr1l, fsr1h, status,2, status,0, pclath, cstack
   892 ;; Tracked objects:
   893 ;;		On entry : B1F/0
   894 ;;		On exit  : 0/0
   895 ;;		Unchanged: 0/0
   896 ;; Data sizes:     COMMON   BANK0   BANK1   BANK2
   897 ;;      Params:         0       0       0       0
   898 ;;      Locals:         2       0       0       0
   899 ;;      Temps:          0       9       0       0
   900 ;;      Totals:         2       9       0       0
   901 ;;Total ram usage:       11 bytes
   902 ;; Hardware stack levels required when called:    1
   903 ;; This function calls:
   904 ;;		___awdiv
   905 ;;		_adConvert
   906 ;;		_init
   907 ;;		_lights
   908 ;; This function is called by:
   909 ;;		Startup code after reset
   910 ;; This function uses a non-reentrant model
   911 ;;
   912                           
   913                           
   914                           ;psect for function _main
   915  070B                     _main:	
   916                           
   917                           ;RAINBO-LPF.c: 93: init();
   918                           
   919                           ;incstack = 0
   920                           ; Regs used in _main: [wreg-fsr1h+status,2+status,0+pclath+cstack]
   921  070B  3186  2640  3187   	fcall	_init
   922                           
   923                           ;RAINBO-LPF.c: 94: _delay((unsigned long)((200)*(32000000/4000000.0)));
   924  070E  30E4               	movlw	228
   925  070F                     u577:	
   926  070F  3200               	nop2
   927  0710  3200               	nop2
   928  0711  0B89               	decfsz	9,f
   929  0712  2F0F               	goto	u577
   930  0713  3200               	nop2
   931  0714  3200               	nop2
   932  0715                     l868:	
   933                           ;RAINBO-LPF.c: 97: while (1) {
   934                           
   935                           
   936                           ;RAINBO-LPF.c: 98: max1 = 0;
   937  0715  0020               	movlb	0	; select bank0
   938  0716  01A7               	clrf	_max1
   939                           
   940                           ;RAINBO-LPF.c: 99: max2 = 0;
   941  0717  01FD               	clrf	_max2
   942                           
   943                           ;RAINBO-LPF.c: 100: max3 = 0;
   944  0718  01FC               	clrf	_max3
   945                           
   946                           ;RAINBO-LPF.c: 101: max4 = 0;
   947  0719  01A6               	clrf	_max4
   948                           
   949                           ;RAINBO-LPF.c: 102: tempIN = adConvert(0b00000100);
   950  071A  3004               	movlw	4
   951  071B  3186  262C  3187   	fcall	_adConvert
   952  071E  0020               	movlb	0	; select bank0
   953  071F  00B6               	movwf	??_main
   954  0720  0836               	movf	??_main,w
   955  0721  00A8               	movwf	_tempIN
   956                           
   957                           ;RAINBO-LPF.c: 103: LPFInput[lastVal] = tempIN;
   958  0722  0828               	movf	_tempIN,w
   959  0723  00B6               	movwf	??_main
   960  0724  082A               	movf	_lastVal,w
   961  0725  3E2B               	addlw	(low (_LPFInput| 0))& (0+255)
   962  0726  0086               	movwf	6
   963  0727  0187               	clrf	7
   964  0728  0836               	movf	??_main,w
   965  0729  0081               	movwf	1
   966                           
   967                           ;RAINBO-LPF.c: 104: lastVal = (lastVal == 9) ? 0 : lastVal + 1;
   968  072A  3009               	movlw	9
   969  072B  062A               	xorwf	_lastVal,w
   970  072C  1903               	btfsc	3,2
   971  072D  2F36               	goto	l884
   972  072E  082A               	movf	_lastVal,w
   973  072F  3E01               	addlw	1
   974  0730  00F9               	movwf	_main$74
   975  0731  3000               	movlw	0
   976  0732  1803               	skipnc
   977  0733  3001               	movlw	1
   978  0734  00FA               	movwf	_main$74+1
   979  0735  2F38               	goto	l886
   980  0736                     l884:	
   981  0736  01F9               	clrf	_main$74
   982  0737  01FA               	clrf	_main$74+1
   983  0738                     l886:	
   984  0738  0879               	movf	_main$74,w
   985  0739  00B6               	movwf	??_main
   986  073A  0836               	movf	??_main,w
   987  073B  00AA               	movwf	_lastVal
   988                           
   989                           ;RAINBO-LPF.c: 105: for (i = 0; i < 10; i++) {
   990  073C  01FB               	clrf	_i
   991  073D  300A               	movlw	10
   992  073E  027B               	subwf	_i,w
   993  073F  1803               	btfsc	3,0
   994  0740  2FA4               	goto	l918
   995  0741                     l892:	
   996                           
   997                           ;RAINBO-LPF.c: 106: if (LPFInput[i] > max1) {
   998  0741  087B               	movf	_i,w
   999  0742  3E2B               	addlw	(low (_LPFInput| 0))& (0+255)
  1000  0743  0086               	movwf	6
  1001  0744  0187               	clrf	7
  1002  0745  0801               	movf	1,w
  1003  0746  0227               	subwf	_max1,w
  1004  0747  1803               	skipnc
  1005  0748  2F5E               	goto	l898
  1006                           
  1007                           ;RAINBO-LPF.c: 107: max4 = max3;
  1008  0749  087C               	movf	_max3,w
  1009  074A  00B6               	movwf	??_main
  1010  074B  0836               	movf	??_main,w
  1011  074C  00A6               	movwf	_max4
  1012                           
  1013                           ;RAINBO-LPF.c: 108: max3 = max2;
  1014  074D  087D               	movf	_max2,w
  1015  074E  00B6               	movwf	??_main
  1016  074F  0836               	movf	??_main,w
  1017  0750  00FC               	movwf	_max3
  1018                           
  1019                           ;RAINBO-LPF.c: 109: max2 = max1;
  1020  0751  0827               	movf	_max1,w
  1021  0752  00B6               	movwf	??_main
  1022  0753  0836               	movf	??_main,w
  1023  0754  00FD               	movwf	_max2
  1024                           
  1025                           ;RAINBO-LPF.c: 110: max1 = LPFInput[i];
  1026  0755  087B               	movf	_i,w
  1027  0756  3E2B               	addlw	(low (_LPFInput| 0))& (0+255)
  1028  0757  0086               	movwf	6
  1029  0758  0187               	clrf	7
  1030  0759  0801               	movf	1,w
  1031  075A  00B6               	movwf	??_main
  1032  075B  0836               	movf	??_main,w
  1033  075C  00A7               	movwf	_max1
  1034                           
  1035                           ;RAINBO-LPF.c: 111: } else if (LPFInput[i] > max2) {
  1036  075D  2F9C               	goto	l914
  1037  075E                     l898:	
  1038  075E  087B               	movf	_i,w
  1039  075F  3E2B               	addlw	(low (_LPFInput| 0))& (0+255)
  1040  0760  0086               	movwf	6
  1041  0761  0187               	clrf	7
  1042  0762  0801               	movf	1,w
  1043  0763  027D               	subwf	_max2,w
  1044  0764  1803               	skipnc
  1045  0765  2F77               	goto	l904
  1046                           
  1047                           ;RAINBO-LPF.c: 112: max4 = max3;
  1048  0766  087C               	movf	_max3,w
  1049  0767  00B6               	movwf	??_main
  1050  0768  0836               	movf	??_main,w
  1051  0769  00A6               	movwf	_max4
  1052                           
  1053                           ;RAINBO-LPF.c: 113: max3 = max2;
  1054  076A  087D               	movf	_max2,w
  1055  076B  00B6               	movwf	??_main
  1056  076C  0836               	movf	??_main,w
  1057  076D  00FC               	movwf	_max3
  1058                           
  1059                           ;RAINBO-LPF.c: 114: max2 = LPFInput[i];
  1060  076E  087B               	movf	_i,w
  1061  076F  3E2B               	addlw	(low (_LPFInput| 0))& (0+255)
  1062  0770  0086               	movwf	6
  1063  0771  0187               	clrf	7
  1064  0772  0801               	movf	1,w
  1065  0773  00B6               	movwf	??_main
  1066  0774  0836               	movf	??_main,w
  1067  0775  00FD               	movwf	_max2
  1068                           
  1069                           ;RAINBO-LPF.c: 115: } else if (LPFInput[i] > max3) {
  1070  0776  2F9C               	goto	l914
  1071  0777                     l904:	
  1072  0777  087B               	movf	_i,w
  1073  0778  3E2B               	addlw	(low (_LPFInput| 0))& (0+255)
  1074  0779  0086               	movwf	6
  1075  077A  0187               	clrf	7
  1076  077B  0801               	movf	1,w
  1077  077C  027C               	subwf	_max3,w
  1078  077D  1803               	skipnc
  1079  077E  2F8C               	goto	l910
  1080                           
  1081                           ;RAINBO-LPF.c: 116: max4 = max3;
  1082  077F  087C               	movf	_max3,w
  1083  0780  00B6               	movwf	??_main
  1084  0781  0836               	movf	??_main,w
  1085  0782  00A6               	movwf	_max4
  1086                           
  1087                           ;RAINBO-LPF.c: 117: max3 = LPFInput[i];
  1088  0783  087B               	movf	_i,w
  1089  0784  3E2B               	addlw	(low (_LPFInput| 0))& (0+255)
  1090  0785  0086               	movwf	6
  1091  0786  0187               	clrf	7
  1092  0787  0801               	movf	1,w
  1093  0788  00B6               	movwf	??_main
  1094  0789  0836               	movf	??_main,w
  1095  078A  00FC               	movwf	_max3
  1096                           
  1097                           ;RAINBO-LPF.c: 118: } else if (LPFInput[i] > max4) {
  1098  078B  2F9C               	goto	l914
  1099  078C                     l910:	
  1100  078C  087B               	movf	_i,w
  1101  078D  3E2B               	addlw	(low (_LPFInput| 0))& (0+255)
  1102  078E  0086               	movwf	6
  1103  078F  0187               	clrf	7
  1104  0790  0801               	movf	1,w
  1105  0791  0226               	subwf	_max4,w
  1106  0792  1803               	skipnc
  1107  0793  2F9C               	goto	l914
  1108                           
  1109                           ;RAINBO-LPF.c: 119: max4 = LPFInput[i];
  1110  0794  087B               	movf	_i,w
  1111  0795  3E2B               	addlw	(low (_LPFInput| 0))& (0+255)
  1112  0796  0086               	movwf	6
  1113  0797  0187               	clrf	7
  1114  0798  0801               	movf	1,w
  1115  0799  00B6               	movwf	??_main
  1116  079A  0836               	movf	??_main,w
  1117  079B  00A6               	movwf	_max4
  1118  079C                     l914:	
  1119  079C  3001               	movlw	1
  1120  079D  00B6               	movwf	??_main
  1121  079E  0836               	movf	??_main,w
  1122  079F  07FB               	addwf	_i,f
  1123  07A0  300A               	movlw	10
  1124  07A1  027B               	subwf	_i,w
  1125  07A2  1C03               	skipc
  1126  07A3  2F41               	goto	l892
  1127  07A4                     l918:	
  1128                           
  1129                           ;RAINBO-LPF.c: 120: }
  1130                           ;RAINBO-LPF.c: 121: }
  1131                           ;RAINBO-LPF.c: 122: LPFAvg = (max1 + max2 + max3 + max4) / 4;
  1132  07A4  3004               	movlw	4
  1133  07A5  00F0               	movwf	___awdiv@divisor
  1134  07A6  3000               	movlw	0
  1135  07A7  00F1               	movwf	___awdiv@divisor+1
  1136  07A8  0826               	movf	_max4,w
  1137  07A9  00B6               	movwf	??_main
  1138  07AA  01B7               	clrf	??_main+1
  1139  07AB  087C               	movf	_max3,w
  1140  07AC  00B8               	movwf	??_main+2
  1141  07AD  01B9               	clrf	??_main+3
  1142  07AE  0827               	movf	_max1,w
  1143  07AF  077D               	addwf	_max2,w
  1144  07B0  00BA               	movwf	??_main+4
  1145  07B1  01BB               	clrf	??_main+5
  1146  07B2  0DBB               	rlf	??_main+5,f
  1147  07B3  0838               	movf	??_main+2,w
  1148  07B4  073A               	addwf	??_main+4,w
  1149  07B5  00BC               	movwf	??_main+6
  1150  07B6  0839               	movf	??_main+3,w
  1151  07B7  3D3B               	addwfc	??_main+5,w
  1152  07B8  00BD               	movwf	??_main+7
  1153  07B9  0836               	movf	??_main,w
  1154  07BA  073C               	addwf	??_main+6,w
  1155  07BB  00F2               	movwf	___awdiv@dividend
  1156  07BC  0837               	movf	??_main+1,w
  1157  07BD  3D3D               	addwfc	??_main+7,w
  1158  07BE  00F3               	movwf	___awdiv@dividend+1
  1159  07BF  3186  265C  3187   	fcall	___awdiv
  1160  07C2  0870               	movf	?___awdiv,w
  1161  07C3  0020               	movlb	0	; select bank0
  1162  07C4  00BE               	movwf	??_main+8
  1163  07C5  083E               	movf	??_main+8,w
  1164  07C6  00A9               	movwf	_LPFAvg
  1165                           
  1166                           ;RAINBO-LPF.c: 123: lights(LPFLookupTable[LPFAvg], maxLEDs);
  1167  07C7  3000               	movlw	low (_maxLEDs| (0+32768))
  1168  07C8  0084               	movwf	4
  1169  07C9  3089               	movlw	high (_maxLEDs| (0+32768))
  1170  07CA  0085               	movwf	5
  1171  07CB  0800               	movf	0,w	;code access
  1172  07CC  00B6               	movwf	??_main
  1173  07CD  0836               	movf	??_main,w
  1174  07CE  00F0               	movwf	lights@leds
  1175  07CF  0829               	movf	_LPFAvg,w
  1176  07D0  3E00               	addlw	low (_LPFLookupTable| (0+32768))
  1177  07D1  0084               	movwf	4
  1178  07D2  3088               	movlw	high (_LPFLookupTable| (0+32768))
  1179  07D3  1803               	skipnc
  1180  07D4  3E01               	addlw	1
  1181  07D5  0085               	movwf	5
  1182  07D6  0800               	movf	0,w	;code access
  1183  07D7  3186  26AD  3187   	fcall	_lights
  1184                           
  1185                           ;RAINBO-LPF.c: 124: _delay((unsigned long)((5)*(32000000/4000.0)));
  1186  07DA  3034               	movlw	52
  1187  07DB  0020               	movlb	0	; select bank0
  1188  07DC  00B6               	movwf	??_main
  1189  07DD  30F1               	movlw	241
  1190  07DE                     u587:	
  1191  07DE  0B89               	decfsz	9,f
  1192  07DF  2FDE               	goto	u587
  1193  07E0  0BB6               	decfsz	??_main,f
  1194  07E1  2FDE               	goto	u587
  1195  07E2  3200               	nop2
  1196  07E3  2F15               	goto	l868
  1197  07E4                     __end_of_main:	
  1198                           
  1199                           	psect	text1
  1200  06AD                     __ptext1:	
  1201 ;; *************** function _lights *****************
  1202 ;; Defined at:
  1203 ;;		line 52 in file "RAINBO-LPF.c"
  1204 ;; Parameters:    Size  Location     Type
  1205 ;;  height          1    wreg     unsigned char 
  1206 ;;  leds            1    0[COMMON] unsigned char 
  1207 ;; Auto vars:     Size  Location     Type
  1208 ;;  height          1    3[COMMON] unsigned char 
  1209 ;; Return value:  Size  Location     Type
  1210 ;;                  1    wreg      void 
  1211 ;; Registers used:
  1212 ;;		wreg, status,2, status,0
  1213 ;; Tracked objects:
  1214 ;;		On entry : 0/0
  1215 ;;		On exit  : 0/0
  1216 ;;		Unchanged: 0/0
  1217 ;; Data sizes:     COMMON   BANK0   BANK1   BANK2
  1218 ;;      Params:         1       0       0       0
  1219 ;;      Locals:         3       0       0       0
  1220 ;;      Temps:          2       0       0       0
  1221 ;;      Totals:         6       0       0       0
  1222 ;;Total ram usage:        6 bytes
  1223 ;; Hardware stack levels used:    1
  1224 ;; This function calls:
  1225 ;;		Nothing
  1226 ;; This function is called by:
  1227 ;;		_main
  1228 ;; This function uses a non-reentrant model
  1229 ;;
  1230                           
  1231                           
  1232                           ;psect for function _lights
  1233  06AD                     _lights:	
  1234                           
  1235                           ;incstack = 0
  1236                           ; Regs used in _lights: [wreg+status,2+status,0]
  1237                           ;lights@height stored from wreg
  1238  06AD  00F3               	movwf	lights@height
  1239  06AE                     L1:	
  1240  06AE  0870               	movf	lights@leds,w
  1241  06AF  1903               	btfsc	3,2
  1242  06B0  0008               	return
  1243                           
  1244                           ;RAINBO-LPF.c: 59: temp = (leds <= height) ? green : 0;
  1245  06B1  0870               	movf	lights@leds,w
  1246  06B2  0273               	subwf	lights@height,w
  1247  06B3  1803               	skipnc
  1248  06B4  2EB8               	goto	l794
  1249  06B5  01F4               	clrf	_lights$66
  1250  06B6  01F5               	clrf	_lights$66+1
  1251  06B7  2EC0               	goto	l92
  1252  06B8                     l794:	
  1253  06B8  0020               	movlb	0	; select bank0
  1254  06B9  0835               	movf	_green,w
  1255  06BA  00F1               	movwf	??_lights
  1256  06BB  01F2               	clrf	??_lights+1
  1257  06BC  0871               	movf	??_lights,w
  1258  06BD  00F4               	movwf	_lights$66
  1259  06BE  0872               	movf	??_lights+1,w
  1260  06BF  00F5               	movwf	_lights$66+1
  1261  06C0                     l92:	
  1262  06C0  0874               	movf	_lights$66,w
  1263  06C1  00F1               	movwf	??_lights
  1264  06C2  0871               	movf	??_lights,w
  1265  06C3  0020               	movlb	0	; select bank0
  1266  06C4  00A0               	movwf	_temp
  1267                           
  1268                           ;RAINBO-LPF.c: 60: for (i = 8; i != 0; i--) {
  1269  06C5  3008               	movlw	8
  1270  06C6  00F1               	movwf	??_lights
  1271  06C7  0871               	movf	??_lights,w
  1272  06C8  00FB               	movwf	_i
  1273  06C9  087B               	movf	_i,w
  1274  06CA  1903               	btfsc	3,2
  1275  06CB  2ED8               	goto	l802
  1276  06CC                     l93:	
  1277  06CC  160C               	bsf	268,4	;# 
  1278  06CD  0000               	nop	;# 
  1279  06CE  1FA0               	btfss	_temp,7	;# 
  1280  06CF  120C               	bcf	268,4	;# 
  1281  06D0  0000               	nop	;# 
  1282  06D1  35A0               	lslf	_temp,f	;# 
  1283  06D2  120C               	bcf	268,4	;# 
  1284  06D3  3001               	movlw	1
  1285  06D4  02FB               	subwf	_i,f
  1286  06D5  087B               	movf	_i,w
  1287  06D6  1D03               	btfss	3,2
  1288  06D7  2ECC               	goto	l93
  1289  06D8                     l802:	
  1290                           
  1291                           ;RAINBO-LPF.c: 68: }
  1292                           ;RAINBO-LPF.c: 69: temp = red;
  1293  06D8  0020               	movlb	0	; select bank0
  1294  06D9  0825               	movf	_red,w
  1295  06DA  00F1               	movwf	??_lights
  1296  06DB  0871               	movf	??_lights,w
  1297  06DC  00A0               	movwf	_temp
  1298                           
  1299                           ;RAINBO-LPF.c: 70: for (i = 8; i != 0; i--) {
  1300  06DD  3008               	movlw	8
  1301  06DE  00F1               	movwf	??_lights
  1302  06DF  0871               	movf	??_lights,w
  1303  06E0  00FB               	movwf	_i
  1304  06E1  087B               	movf	_i,w
  1305  06E2  1903               	btfsc	3,2
  1306  06E3  2EF0               	goto	l810
  1307  06E4                     l95:	
  1308  06E4  160C               	bsf	268,4	;# 
  1309  06E5  0000               	nop	;# 
  1310  06E6  1FA0               	btfss	_temp,7	;# 
  1311  06E7  120C               	bcf	268,4	;# 
  1312  06E8  0000               	nop	;# 
  1313  06E9  35A0               	lslf	_temp,f	;# 
  1314  06EA  120C               	bcf	268,4	;# 
  1315  06EB  3001               	movlw	1
  1316  06EC  02FB               	subwf	_i,f
  1317  06ED  087B               	movf	_i,w
  1318  06EE  1D03               	btfss	3,2
  1319  06EF  2EE4               	goto	l95
  1320  06F0                     l810:	
  1321                           
  1322                           ;RAINBO-LPF.c: 78: }
  1323                           ;RAINBO-LPF.c: 79: temp = blue;
  1324  06F0  0020               	movlb	0	; select bank0
  1325  06F1  0824               	movf	_blue,w
  1326  06F2  00F1               	movwf	??_lights
  1327  06F3  0871               	movf	??_lights,w
  1328  06F4  00A0               	movwf	_temp
  1329                           
  1330                           ;RAINBO-LPF.c: 80: for (i = 8; i != 0; i--) {
  1331  06F5  3008               	movlw	8
  1332  06F6  00F1               	movwf	??_lights
  1333  06F7  0871               	movf	??_lights,w
  1334  06F8  00FB               	movwf	_i
  1335  06F9  087B               	movf	_i,w
  1336  06FA  1903               	btfsc	3,2
  1337  06FB  2F08               	goto	l818
  1338  06FC                     l97:	
  1339  06FC  160C               	bsf	268,4	;# 
  1340  06FD  0000               	nop	;# 
  1341  06FE  1FA0               	btfss	_temp,7	;# 
  1342  06FF  120C               	bcf	268,4	;# 
  1343  0700  0000               	nop	;# 
  1344  0701  35A0               	lslf	_temp,f	;# 
  1345  0702  120C               	bcf	268,4	;# 
  1346  0703  3001               	movlw	1
  1347  0704  02FB               	subwf	_i,f
  1348  0705  087B               	movf	_i,w
  1349  0706  1D03               	btfss	3,2
  1350  0707  2EFC               	goto	l97
  1351  0708                     l818:	
  1352  0708  3001               	movlw	1
  1353  0709  02F0               	subwf	lights@leds,f
  1354  070A  2EAE               	goto	L1
  1355  070B                     __end_of_lights:	
  1356                           
  1357                           	psect	text2
  1358  0640                     __ptext2:	
  1359 ;; *************** function _init *****************
  1360 ;; Defined at:
  1361 ;;		line 12 in file "RAINBO.c"
  1362 ;; Parameters:    Size  Location     Type
  1363 ;;		None
  1364 ;; Auto vars:     Size  Location     Type
  1365 ;;		None
  1366 ;; Return value:  Size  Location     Type
  1367 ;;                  1    wreg      void 
  1368 ;; Registers used:
  1369 ;;		wreg, status,2
  1370 ;; Tracked objects:
  1371 ;;		On entry : 0/0
  1372 ;;		On exit  : 0/0
  1373 ;;		Unchanged: 0/0
  1374 ;; Data sizes:     COMMON   BANK0   BANK1   BANK2
  1375 ;;      Params:         0       0       0       0
  1376 ;;      Locals:         0       0       0       0
  1377 ;;      Temps:          0       0       0       0
  1378 ;;      Totals:         0       0       0       0
  1379 ;;Total ram usage:        0 bytes
  1380 ;; Hardware stack levels used:    1
  1381 ;; This function calls:
  1382 ;;		Nothing
  1383 ;; This function is called by:
  1384 ;;		_main
  1385 ;; This function uses a non-reentrant model
  1386 ;;
  1387                           
  1388                           
  1389                           ;psect for function _init
  1390  0640                     _init:	
  1391                           
  1392                           ;RAINBO.c: 16: OSCCON = 0b11110000;
  1393                           
  1394                           ;incstack = 0
  1395                           ; Regs used in _init: [wreg+status,2]
  1396  0640  30F0               	movlw	240
  1397  0641  0021               	movlb	1	; select bank1
  1398  0642  0099               	movwf	25	;volatile
  1399  0643                     l27:	
  1400                           ;RAINBO.c: 17: while(!PLLR);
  1401                           
  1402  0643  1F1A               	btfss	26,6	;volatile
  1403  0644  2E43               	goto	l27
  1404                           
  1405                           ;RAINBO.c: 21: OPTION_REG = 0b00010000;
  1406  0645  3010               	movlw	16
  1407  0646  0095               	movwf	21	;volatile
  1408                           
  1409                           ;RAINBO.c: 23: PORTA = 0;
  1410  0647  0020               	movlb	0	; select bank0
  1411  0648  018C               	clrf	12	;volatile
  1412                           
  1413                           ;RAINBO.c: 24: LATA = 0;
  1414  0649  0022               	movlb	2	; select bank2
  1415  064A  018C               	clrf	12	;volatile
  1416                           
  1417                           ;RAINBO.c: 25: ANSELA = 0b00000011;
  1418  064B  3003               	movlw	3
  1419  064C  0023               	movlb	3	; select bank3
  1420  064D  008C               	movwf	12	;volatile
  1421                           
  1422                           ;RAINBO.c: 26: ADCON0 = 0b00000000;
  1423  064E  0021               	movlb	1	; select bank1
  1424  064F  019D               	clrf	29	;volatile
  1425                           
  1426                           ;RAINBO.c: 27: ADCON1 = 0b01100000;
  1427  0650  3060               	movlw	96
  1428  0651  009E               	movwf	30	;volatile
  1429                           
  1430                           ;RAINBO.c: 28: TRISA = 0b00001111;
  1431  0652  300F               	movlw	15
  1432  0653  008C               	movwf	12	;volatile
  1433                           
  1434                           ;RAINBO.c: 29: WPUA = 0b00001000;
  1435  0654  3008               	movlw	8
  1436  0655  0024               	movlb	4	; select bank4
  1437  0656  008C               	movwf	12	;volatile
  1438                           
  1439                           ;RAINBO.c: 31: WDTCON = 0b00001010;
  1440  0657  300A               	movlw	10
  1441  0658  0021               	movlb	1	; select bank1
  1442  0659  0097               	movwf	23	;volatile
  1443                           
  1444                           ;RAINBO.c: 35: INTCON = 0;
  1445  065A  018B               	clrf	11	;volatile
  1446  065B  0008               	return
  1447  065C                     __end_of_init:	
  1448                           
  1449                           	psect	text3
  1450  062C                     __ptext3:	
  1451 ;; *************** function _adConvert *****************
  1452 ;; Defined at:
  1453 ;;		line 39 in file "RAINBO-LPF.c"
  1454 ;; Parameters:    Size  Location     Type
  1455 ;;  chan            1    wreg     unsigned char 
  1456 ;; Auto vars:     Size  Location     Type
  1457 ;;  chan            1    0[COMMON] unsigned char 
  1458 ;; Return value:  Size  Location     Type
  1459 ;;                  1    wreg      unsigned char 
  1460 ;; Registers used:
  1461 ;;		wreg, status,2, status,0
  1462 ;; Tracked objects:
  1463 ;;		On entry : 0/0
  1464 ;;		On exit  : 0/0
  1465 ;;		Unchanged: 0/0
  1466 ;; Data sizes:     COMMON   BANK0   BANK1   BANK2
  1467 ;;      Params:         0       0       0       0
  1468 ;;      Locals:         1       0       0       0
  1469 ;;      Temps:          0       0       0       0
  1470 ;;      Totals:         1       0       0       0
  1471 ;;Total ram usage:        1 bytes
  1472 ;; Hardware stack levels used:    1
  1473 ;; This function calls:
  1474 ;;		Nothing
  1475 ;; This function is called by:
  1476 ;;		_main
  1477 ;; This function uses a non-reentrant model
  1478 ;;
  1479                           
  1480                           
  1481                           ;psect for function _adConvert
  1482  062C                     _adConvert:	
  1483                           
  1484                           ;incstack = 0
  1485                           ; Regs used in _adConvert: [wreg+status,2+status,0]
  1486                           ;adConvert@chan stored from wreg
  1487  062C  00F0               	movwf	adConvert@chan
  1488                           
  1489                           ;RAINBO-LPF.c: 40: ADON = 1;
  1490  062D  0021               	movlb	1	; select bank1
  1491  062E  141D               	bsf	29,0	;volatile
  1492                           
  1493                           ;RAINBO-LPF.c: 41: ADCON0 = (ADCON0 & 0b10000011);
  1494  062F  081D               	movf	29,w	;volatile
  1495  0630  3983               	andlw	131
  1496  0631  009D               	movwf	29	;volatile
  1497                           
  1498                           ;RAINBO-LPF.c: 42: ADCON0 = (ADCON0 | chan);
  1499  0632  081D               	movf	29,w	;volatile
  1500  0633  0470               	iorwf	adConvert@chan,w
  1501  0634  009D               	movwf	29	;volatile
  1502                           
  1503                           ;RAINBO-LPF.c: 43: _delay((unsigned long)((2)*(32000000/4000000.0)));
  1504  0635  3005               	movlw	5
  1505  0636                     u597:	
  1506  0636  0B89               	decfsz	9,f
  1507  0637  2E36               	goto	u597
  1508  0638  0000               	nop
  1509                           
  1510                           ;RAINBO-LPF.c: 45: GO = 1;
  1511  0639  0021               	movlb	1	; select bank1
  1512  063A  149D               	bsf	29,1	;volatile
  1513  063B                     l81:	
  1514                           ;RAINBO-LPF.c: 46: while (GO);
  1515                           
  1516  063B  189D               	btfsc	29,1	;volatile
  1517  063C  2E3B               	goto	l81
  1518                           
  1519                           ;RAINBO-LPF.c: 48: ADON = 0;
  1520  063D  101D               	bcf	29,0	;volatile
  1521                           
  1522                           ;RAINBO-LPF.c: 49: return (ADRESH);
  1523  063E  081C               	movf	28,w	;volatile
  1524  063F  0008               	return
  1525  0640                     __end_of_adConvert:	
  1526                           
  1527                           	psect	text4
  1528  065C                     __ptext4:	
  1529 ;; *************** function ___awdiv *****************
  1530 ;; Defined at:
  1531 ;;		line 6 in file "C:\Program Files\Microchip\xc8\v1.44\sources\common\awdiv.c"
  1532 ;; Parameters:    Size  Location     Type
  1533 ;;  divisor         2    0[COMMON] int 
  1534 ;;  dividend        2    2[COMMON] int 
  1535 ;; Auto vars:     Size  Location     Type
  1536 ;;  quotient        2    7[COMMON] int 
  1537 ;;  sign            1    6[COMMON] unsigned char 
  1538 ;;  counter         1    5[COMMON] unsigned char 
  1539 ;; Return value:  Size  Location     Type
  1540 ;;                  2    0[COMMON] int 
  1541 ;; Registers used:
  1542 ;;		wreg, status,2, status,0
  1543 ;; Tracked objects:
  1544 ;;		On entry : 0/0
  1545 ;;		On exit  : 0/0
  1546 ;;		Unchanged: 0/0
  1547 ;; Data sizes:     COMMON   BANK0   BANK1   BANK2
  1548 ;;      Params:         4       0       0       0
  1549 ;;      Locals:         4       0       0       0
  1550 ;;      Temps:          1       0       0       0
  1551 ;;      Totals:         9       0       0       0
  1552 ;;Total ram usage:        9 bytes
  1553 ;; Hardware stack levels used:    1
  1554 ;; This function calls:
  1555 ;;		Nothing
  1556 ;; This function is called by:
  1557 ;;		_main
  1558 ;; This function uses a non-reentrant model
  1559 ;;
  1560                           
  1561                           
  1562                           ;psect for function ___awdiv
  1563  065C                     ___awdiv:	
  1564                           
  1565                           ;incstack = 0
  1566                           ; Regs used in ___awdiv: [wreg+status,2+status,0]
  1567  065C  01F6               	clrf	___awdiv@sign
  1568  065D  1FF1               	btfss	___awdiv@divisor+1,7
  1569  065E  2E66               	goto	l828
  1570  065F  09F0               	comf	___awdiv@divisor,f
  1571  0660  09F1               	comf	___awdiv@divisor+1,f
  1572  0661  0AF0               	incf	___awdiv@divisor,f
  1573  0662  1903               	skipnz
  1574  0663  0AF1               	incf	___awdiv@divisor+1,f
  1575  0664  01F6               	clrf	___awdiv@sign
  1576  0665  0AF6               	incf	___awdiv@sign,f
  1577  0666                     l828:	
  1578  0666  1FF3               	btfss	___awdiv@dividend+1,7
  1579  0667  2E71               	goto	l834
  1580  0668  09F2               	comf	___awdiv@dividend,f
  1581  0669  09F3               	comf	___awdiv@dividend+1,f
  1582  066A  0AF2               	incf	___awdiv@dividend,f
  1583  066B  1903               	skipnz
  1584  066C  0AF3               	incf	___awdiv@dividend+1,f
  1585  066D  3001               	movlw	1
  1586  066E  00F4               	movwf	??___awdiv
  1587  066F  0874               	movf	??___awdiv,w
  1588  0670  06F6               	xorwf	___awdiv@sign,f
  1589  0671                     l834:	
  1590  0671  01F7               	clrf	___awdiv@quotient
  1591  0672  01F8               	clrf	___awdiv@quotient+1
  1592  0673  0870               	movf	___awdiv@divisor,w
  1593  0674  0471               	iorwf	___awdiv@divisor+1,w
  1594  0675  1903               	btfsc	3,2
  1595  0676  2EA0               	goto	l856
  1596  0677  01F5               	clrf	___awdiv@counter
  1597  0678  0AF5               	incf	___awdiv@counter,f
  1598  0679                     l844:	
  1599  0679  1BF1               	btfsc	___awdiv@divisor+1,7
  1600  067A  2E85               	goto	l846
  1601  067B  3001               	movlw	1
  1602  067C                     u435:	
  1603  067C  35F0               	lslf	___awdiv@divisor,f
  1604  067D  0DF1               	rlf	___awdiv@divisor+1,f
  1605  067E  0B89               	decfsz	9,f
  1606  067F  2E7C               	goto	u435
  1607  0680  3001               	movlw	1
  1608  0681  00F4               	movwf	??___awdiv
  1609  0682  0874               	movf	??___awdiv,w
  1610  0683  07F5               	addwf	___awdiv@counter,f
  1611  0684  2E79               	goto	l844
  1612  0685                     l846:	
  1613  0685  3001               	movlw	1
  1614  0686                     u455:	
  1615  0686  35F7               	lslf	___awdiv@quotient,f
  1616  0687  0DF8               	rlf	___awdiv@quotient+1,f
  1617  0688  0B89               	decfsz	9,f
  1618  0689  2E86               	goto	u455
  1619  068A  0871               	movf	___awdiv@divisor+1,w
  1620  068B  0273               	subwf	___awdiv@dividend+1,w
  1621  068C  1D03               	skipz
  1622  068D  2E90               	goto	u465
  1623  068E  0870               	movf	___awdiv@divisor,w
  1624  068F  0272               	subwf	___awdiv@dividend,w
  1625  0690                     u465:	
  1626  0690  1C03               	skipc
  1627  0691  2E97               	goto	l852
  1628  0692  0870               	movf	___awdiv@divisor,w
  1629  0693  02F2               	subwf	___awdiv@dividend,f
  1630  0694  0871               	movf	___awdiv@divisor+1,w
  1631  0695  3BF3               	subwfb	___awdiv@dividend+1,f
  1632  0696  1477               	bsf	___awdiv@quotient,0
  1633  0697                     l852:	
  1634  0697  3001               	movlw	1
  1635  0698                     u475:	
  1636  0698  36F1               	lsrf	___awdiv@divisor+1,f
  1637  0699  0CF0               	rrf	___awdiv@divisor,f
  1638  069A  0B89               	decfsz	9,f
  1639  069B  2E98               	goto	u475
  1640  069C  3001               	movlw	1
  1641  069D  02F5               	subwf	___awdiv@counter,f
  1642  069E  1D03               	btfss	3,2
  1643  069F  2E85               	goto	l846
  1644  06A0                     l856:	
  1645  06A0  0876               	movf	___awdiv@sign,w
  1646  06A1  1903               	btfsc	3,2
  1647  06A2  2EA8               	goto	l860
  1648  06A3  09F7               	comf	___awdiv@quotient,f
  1649  06A4  09F8               	comf	___awdiv@quotient+1,f
  1650  06A5  0AF7               	incf	___awdiv@quotient,f
  1651  06A6  1903               	skipnz
  1652  06A7  0AF8               	incf	___awdiv@quotient+1,f
  1653  06A8                     l860:	
  1654  06A8  0878               	movf	___awdiv@quotient+1,w
  1655  06A9  00F1               	movwf	?___awdiv+1
  1656  06AA  0877               	movf	___awdiv@quotient,w
  1657  06AB  00F0               	movwf	?___awdiv
  1658  06AC  0008               	return
  1659  06AD                     __end_of___awdiv:	
  1660  007E                     btemp	set	126	;btemp
  1661  007E                     wtemp0	set	126


Data Sizes:
    Strings     0
    Constant    257
    Data        11
    BSS         14
    Persistent  0
    Stack       0

Auto Spaces:
    Space          Size  Autos    Used
    COMMON           14     11      14
    BANK0            80      9      31
    BANK1            80      0       0
    BANK2            80      0       0

Pointer List with Targets:

    None.

Critical Paths under _main in COMMON

    _main->___awdiv

Critical Paths under _main in BANK0

    None.

Critical Paths under _main in BANK1

    None.

Critical Paths under _main in BANK2

    None.

Call Graph Tables:

 ---------------------------------------------------------------------------------
 (Depth) Function   	        Calls       Base Space   Used Autos Params    Refs
 ---------------------------------------------------------------------------------
 (0) _main                                                11    11      0     618
                                              9 COMMON     2     2      0
                                              0 BANK0      9     9      0
                            ___awdiv
                          _adConvert
                               _init
                             _lights
 ---------------------------------------------------------------------------------
 (1) _lights                                               6     5      1     166
                                              0 COMMON     6     5      1
 ---------------------------------------------------------------------------------
 (1) _init                                                 0     0      0       0
 ---------------------------------------------------------------------------------
 (1) _adConvert                                            1     1      0      22
                                              0 COMMON     1     1      0
 ---------------------------------------------------------------------------------
 (1) ___awdiv                                              9     5      4     406
                                              0 COMMON     9     5      4
 ---------------------------------------------------------------------------------
 Estimated maximum stack depth 1
 ---------------------------------------------------------------------------------

 Call Graph Graphs:

 _main (ROOT)
   ___awdiv
   _adConvert
   _init
   _lights

 Address spaces:
Name               Size   Autos  Total    Cost      Usage
BIGRAM              F0      0       0       0        0.0%
EEDATA             100      0       0       0        0.0%
NULL                 0      0       0       0        0.0%
CODE                 0      0       0       0        0.0%
BITCOMMON            E      0       0       1        0.0%
BITSFR0              0      0       0       1        0.0%
SFR0                 0      0       0       1        0.0%
COMMON               E      B       E       2      100.0%
BITSFR1              0      0       0       2        0.0%
SFR1                 0      0       0       2        0.0%
BITSFR2              0      0       0       3        0.0%
SFR2                 0      0       0       3        0.0%
STACK                0      0       0       3        0.0%
BITSFR3              0      0       0       4        0.0%
SFR3                 0      0       0       4        0.0%
ABS                  0      0      2D       4        0.0%
BITBANK0            50      0       0       5        0.0%
BITSFR4              0      0       0       5        0.0%
SFR4                 0      0       0       5        0.0%
BANK0               50      9      1F       6       38.8%
BITSFR5              0      0       0       6        0.0%
SFR5                 0      0       0       6        0.0%
BITBANK1            50      0       0       7        0.0%
BITSFR6              0      0       0       7        0.0%
SFR6                 0      0       0       7        0.0%
BANK1               50      0       0       8        0.0%
BITSFR7              0      0       0       8        0.0%
SFR7                 0      0       0       8        0.0%
BITBANK2            50      0       0       9        0.0%
BITSFR8              0      0       0       9        0.0%
SFR8                 0      0       0       9        0.0%
BANK2               50      0       0      10        0.0%
BITSFR9              0      0       0      10        0.0%
SFR9                 0      0       0      10        0.0%
BITSFR10             0      0       0      11        0.0%
SFR10                0      0       0      11        0.0%
DATA                 0      0      2D      11        0.0%
BITSFR11             0      0       0      12        0.0%
SFR11                0      0       0      12        0.0%
BITSFR12             0      0       0      13        0.0%
SFR12                0      0       0      13        0.0%
BITSFR13             0      0       0      14        0.0%
SFR13                0      0       0      14        0.0%
BITSFR14             0      0       0      15        0.0%
SFR14                0      0       0      15        0.0%
BITSFR15             0      0       0      16        0.0%
SFR15                0      0       0      16        0.0%
BITSFR16             0      0       0      17        0.0%
SFR16                0      0       0      17        0.0%
BITSFR17             0      0       0      18        0.0%
SFR17                0      0       0      18        0.0%
BITSFR18             0      0       0      19        0.0%
SFR18                0      0       0      19        0.0%
BITSFR19             0      0       0      20        0.0%
SFR19                0      0       0      20        0.0%
BITSFR20             0      0       0      21        0.0%
SFR20                0      0       0      21        0.0%
BITSFR21             0      0       0      22        0.0%
SFR21                0      0       0      22        0.0%
BITSFR22             0      0       0      23        0.0%
SFR22                0      0       0      23        0.0%
BITSFR23             0      0       0      24        0.0%
SFR23                0      0       0      24        0.0%
BITSFR24             0      0       0      25        0.0%
SFR24                0      0       0      25        0.0%
BITSFR25             0      0       0      26        0.0%
SFR25                0      0       0      26        0.0%
BITSFR26             0      0       0      27        0.0%
SFR26                0      0       0      27        0.0%
BITSFR27             0      0       0      28        0.0%
SFR27                0      0       0      28        0.0%
BITSFR28             0      0       0      29        0.0%
SFR28                0      0       0      29        0.0%
BITSFR29             0      0       0      30        0.0%
SFR29                0      0       0      30        0.0%
BITSFR30             0      0       0      31        0.0%
SFR30                0      0       0      31        0.0%
BITSFR31             0      0       0      32        0.0%
SFR31                0      0       0      32        0.0%


Microchip Technology PIC Macro Assembler V1.44 build -154322312 
Symbol Table                                                                                   Fri Dec 15 10:24:28 2017

                      _i 007B              __CFG_CP$OFF 0000                       l27 0643  
                     l81 063B                       l92 06C0                       l93 06CC  
                     l95 06E4                       l97 06FC                       _GO 04E9  
           ___awdiv@sign 0076                      LATA 010C   __end_of_LPFLookupTable 0900  
                    l810 06F0                      l802 06D8                      l910 078C  
                    l904 0777                      l834 0671                      l818 0708  
                    l914 079C                      l860 06A8                      l852 0697  
                    l844 0679                      l828 0666                      l846 0685  
                    l918 07A4                      l856 06A0                      l794 06B8  
                    l892 0741                      l884 0736                      l868 0715  
                    l886 0738                      l898 075E             __CFG_CPD$OFF 0000  
                    u435 067C                      u455 0686                      u465 0690  
                    u475 0698                      u577 070F                      u587 07DE  
                    u597 0636                      _red 0025             __CFG_BORV$LO 0000  
                    wreg 0009             __CFG_LVP$OFF 0000                     _ADON 04E8  
                   _LATA 010C                     _PLLR 04D6                     _WPUA 020C  
           __CFG_WRT$OFF 0000                     _max1 0027                     _max2 007D  
                   _blue 0024                     _max3 007C                     _max4 0026  
                   _main 070B                     _init 0640                     _temp 0020  
                   fsr0h 0005                     fsr1h 0007                     indf0 0000  
                   fsr0l 0004                     indf1 0001                     fsr1l 0006  
                   btemp 007E                     start 0002            __CFG_IESO$OFF 0000  
          __CFG_PLLEN$ON 0000                    ?_main 0070                    ?_init 0070  
        __end_of___awdiv 06AD          ___awdiv@divisor 0070          ___awdiv@counter 0075  
                  _PORTA 000C                    _TRISA 008C            __CFG_PWRTE$ON 0000  
         __CFG_FCMEN$OFF 0000          __end_of_maxLEDs 0901                    _green 0035  
         __CFG_BOREN$OFF 0000                    status 0003                    wtemp0 007E  
         __CFG_MCLRE$OFF 0000          __initialization 07E4             __end_of_main 07E4  
           __end_of_init 065C                   ??_main 0036                   ??_init 0070  
                 _ADCON0 009D                   _ADCON1 009E                   _ADRESH 009C  
       ___awdiv@dividend 0072                   _ANSELA 018C                   _INTCON 000B  
                 _LPFAvg 0029                   _OSCCON 0099                   _WDTCON 0097  
              ??___awdiv 0074           __CFG_STVREN$ON 0000                   _lights 06AD  
       ___awdiv@quotient 0077                   _tempIN 0028       __size_of_adConvert 0014  
__end_of__initialization 07FD           __pcstackCOMMON 0070             __pidataBANK0 0621  
             __pbssBANK0 0020               __pmaintext 070B        __end_of_adConvert 0640  
                ?_lights 0070             lights@height 0073                  ___awdiv 065C  
        __size_of_lights 005E                  _main$74 0079                  __ptext1 06AD  
                __ptext2 0640                  __ptext3 062C                  __ptext4 065C  
                _maxLEDs 0900                  _lastVal 002A                  _tempRed 0023  
   end_of_initialization 07FD                  init_ram 061B                  initloop 061C  
       __CFG_FOSC$INTOSC 0000           __end_of_lights 070B      start_initialization 07E4  
             lights@leds 0070              __pdataBANK0 002B                 ??_lights 0071  
              _adConvert 062C              __pbssCOMMON 007B                ___latbits 0001  
          __pcstackBANK0 0036                 ?___awdiv 0070               ?_adConvert 0070  
              _lights$66 0074         __CFG_WDTE$SWDTEN 0000                _tempGreen 0022  
               _LPFInput 002B         __size_of___awdiv 0051              ??_adConvert 0070  
          __size_of_main 00D9            __size_of_init 001C                 _tempBlue 0021  
      __CFG_CLKOUTEN$OFF 0000            adConvert@chan 0070            __pstringtext1 0800  
          __pstringtext2 0900               _OPTION_REG 0095           _LPFLookupTable 0800  
